; ModuleID = '19/727.c'
source_filename = "19/727.c"
target datalayout = "e-m:e-p270:32:32-p271:32:32-p272:64:64-i64:64-f80:128-n8:16:32:64-S128"
target triple = "x86_64-pc-linux-gnu"

@.str = private unnamed_addr constant [3 x i8] c"%s\00", align 1
@.str.1 = private unnamed_addr constant [4 x i8] c" %s\00", align 1

; Function Attrs: noinline nounwind uwtable
define dso_local i32 @main() #0 {
  %1 = alloca i32, align 4
  %2 = alloca [1000 x i8], align 16
  %3 = alloca [20 x i8], align 16
  %4 = alloca [20 x i8], align 16
  %5 = alloca [50 x [200 x i8]], align 16
  %6 = alloca i32, align 4
  %7 = alloca i32, align 4
  %8 = alloca i32, align 4
  %9 = alloca i32, align 4
  store i32 0, i32* %1, align 4
  %10 = getelementptr inbounds [1000 x i8], [1000 x i8]* %2, i64 0, i64 0
  %11 = call i32 (i8*, ...) bitcast (i32 (...)* @gets to i32 (i8*, ...)*)(i8* %10)
  store i32 0, i32* %8, align 4
  store i32 0, i32* %9, align 4
  store i32 0, i32* %6, align 4
  br label %12

12:                                               ; preds = %44, %0
  %13 = load i32, i32* %6, align 4
  %14 = sext i32 %13 to i64
  %15 = getelementptr inbounds [1000 x i8], [1000 x i8]* %2, i64 0, i64 %14
  %16 = load i8, i8* %15, align 1
  %17 = sext i8 %16 to i32
  %18 = icmp ne i32 %17, 0
  br i1 %18, label %19, label %47

19:                                               ; preds = %12
  %20 = load i32, i32* %6, align 4
  %21 = sext i32 %20 to i64
  %22 = getelementptr inbounds [1000 x i8], [1000 x i8]* %2, i64 0, i64 %21
  %23 = load i8, i8* %22, align 1
  %24 = sext i8 %23 to i32
  %25 = icmp eq i32 %24, 32
  br i1 %25, label %26, label %43

26:                                               ; preds = %19
  %27 = load i32, i32* %6, align 4
  %28 = sext i32 %27 to i64
  %29 = getelementptr inbounds [1000 x i8], [1000 x i8]* %2, i64 0, i64 %28
  store i8 0, i8* %29, align 1
  %30 = load i32, i32* %9, align 4
  %31 = sext i32 %30 to i64
  %32 = getelementptr inbounds [50 x [200 x i8]], [50 x [200 x i8]]* %5, i64 0, i64 %31
  %33 = getelementptr inbounds [200 x i8], [200 x i8]* %32, i64 0, i64 0
  %34 = getelementptr inbounds [1000 x i8], [1000 x i8]* %2, i64 0, i64 0
  %35 = load i32, i32* %8, align 4
  %36 = sext i32 %35 to i64
  %37 = getelementptr inbounds i8, i8* %34, i64 %36
  %38 = call i8* @strcpy(i8* %33, i8* %37) #4
  %39 = load i32, i32* %9, align 4
  %40 = add nsw i32 %39, 1
  store i32 %40, i32* %9, align 4
  %41 = load i32, i32* %6, align 4
  %42 = add nsw i32 %41, 1
  store i32 %42, i32* %8, align 4
  br label %43

43:                                               ; preds = %26, %19
  br label %44

44:                                               ; preds = %43
  %45 = load i32, i32* %6, align 4
  %46 = add nsw i32 %45, 1
  store i32 %46, i32* %6, align 4
  br label %12

47:                                               ; preds = %12
  %48 = load i32, i32* %9, align 4
  %49 = sext i32 %48 to i64
  %50 = getelementptr inbounds [50 x [200 x i8]], [50 x [200 x i8]]* %5, i64 0, i64 %49
  %51 = getelementptr inbounds [200 x i8], [200 x i8]* %50, i64 0, i64 0
  %52 = getelementptr inbounds [1000 x i8], [1000 x i8]* %2, i64 0, i64 0
  %53 = load i32, i32* %8, align 4
  %54 = sext i32 %53 to i64
  %55 = getelementptr inbounds i8, i8* %52, i64 %54
  %56 = call i8* @strcpy(i8* %51, i8* %55) #4
  %57 = load i32, i32* %9, align 4
  %58 = add nsw i32 %57, 1
  store i32 %58, i32* %9, align 4
  %59 = getelementptr inbounds [20 x i8], [20 x i8]* %4, i64 0, i64 0
  %60 = call i32 (i8*, ...) bitcast (i32 (...)* @gets to i32 (i8*, ...)*)(i8* %59)
  %61 = getelementptr inbounds [20 x i8], [20 x i8]* %3, i64 0, i64 0
  %62 = call i32 (i8*, ...) bitcast (i32 (...)* @gets to i32 (i8*, ...)*)(i8* %61)
  store i32 0, i32* %7, align 4
  br label %63

63:                                               ; preds = %83, %47
  %64 = load i32, i32* %7, align 4
  %65 = load i32, i32* %9, align 4
  %66 = icmp slt i32 %64, %65
  br i1 %66, label %67, label %86

67:                                               ; preds = %63
  %68 = getelementptr inbounds [20 x i8], [20 x i8]* %4, i64 0, i64 0
  %69 = load i32, i32* %7, align 4
  %70 = sext i32 %69 to i64
  %71 = getelementptr inbounds [50 x [200 x i8]], [50 x [200 x i8]]* %5, i64 0, i64 %70
  %72 = getelementptr inbounds [200 x i8], [200 x i8]* %71, i64 0, i64 0
  %73 = call i32 @strcmp(i8* %68, i8* %72) #5
  %74 = icmp eq i32 %73, 0
  br i1 %74, label %75, label %82

75:                                               ; preds = %67
  %76 = load i32, i32* %7, align 4
  %77 = sext i32 %76 to i64
  %78 = getelementptr inbounds [50 x [200 x i8]], [50 x [200 x i8]]* %5, i64 0, i64 %77
  %79 = getelementptr inbounds [200 x i8], [200 x i8]* %78, i64 0, i64 0
  %80 = getelementptr inbounds [20 x i8], [20 x i8]* %3, i64 0, i64 0
  %81 = call i8* @strcpy(i8* %79, i8* %80) #4
  br label %82

82:                                               ; preds = %75, %67
  br label %83

83:                                               ; preds = %82
  %84 = load i32, i32* %7, align 4
  %85 = add nsw i32 %84, 1
  store i32 %85, i32* %7, align 4
  br label %63

86:                                               ; preds = %63
  %87 = getelementptr inbounds [50 x [200 x i8]], [50 x [200 x i8]]* %5, i64 0, i64 0
  %88 = getelementptr inbounds [200 x i8], [200 x i8]* %87, i64 0, i64 0
  %89 = call i32 (i8*, ...) @printf(i8* getelementptr inbounds ([3 x i8], [3 x i8]* @.str, i64 0, i64 0), i8* %88)
  store i32 1, i32* %6, align 4
  br label %90

90:                                               ; preds = %100, %86
  %91 = load i32, i32* %6, align 4
  %92 = load i32, i32* %9, align 4
  %93 = icmp slt i32 %91, %92
  br i1 %93, label %94, label %103

94:                                               ; preds = %90
  %95 = load i32, i32* %6, align 4
  %96 = sext i32 %95 to i64
  %97 = getelementptr inbounds [50 x [200 x i8]], [50 x [200 x i8]]* %5, i64 0, i64 %96
  %98 = getelementptr inbounds [200 x i8], [200 x i8]* %97, i64 0, i64 0
  %99 = call i32 (i8*, ...) @printf(i8* getelementptr inbounds ([4 x i8], [4 x i8]* @.str.1, i64 0, i64 0), i8* %98)
  br label %100

100:                                              ; preds = %94
  %101 = load i32, i32* %6, align 4
  %102 = add nsw i32 %101, 1
  store i32 %102, i32* %6, align 4
  br label %90

103:                                              ; preds = %90
  ret i32 0
}

declare dso_local i32 @gets(...) #1

; Function Attrs: nounwind
declare dso_local i8* @strcpy(i8*, i8*) #2

; Function Attrs: nounwind readonly
declare dso_local i32 @strcmp(i8*, i8*) #3

declare dso_local i32 @printf(i8*, ...) #1


!llvm.module.flags = !{!0}
!llvm.ident = !{!1}

!0 = !{i32 1, !"wchar_size", i32 4}
!1 = !{!"clang version 10.0.0-4ubuntu1 "}
